ARM GAS  C:\Users\Kojo\AppData\Local\Temp\ccToyyFd.s 			page 1


   1              		.syntax unified
   2              		.cpu cortex-m3
   3              		.fpu softvfp
   4              		.eabi_attribute 20, 1
   5              		.eabi_attribute 21, 1
   6              		.eabi_attribute 23, 3
   7              		.eabi_attribute 24, 1
   8              		.eabi_attribute 25, 1
   9              		.eabi_attribute 26, 1
  10              		.eabi_attribute 30, 6
  11              		.eabi_attribute 18, 4
  12              		.thumb
  13              		.file	"main.c"
  20 0000 DE000000 		.text
  20      02005300 
  20      00000201 
  20      FB0E0D00 
  20      01010101 
  21              	.Ltext0:
  22              		.cfi_sections	.debug_frame
  23              		.global	adcResult
  24              		.bss
  25              		.align	1
  26              		.type	adcResult, %object
  27              		.size	adcResult, 2
  28              	adcResult:
  29 0000 0000     		.space	2
  30              		.comm	adcValues,16,4
  31              		.section	.text.RX_INT,"ax",%progbits
  32              		.align	2
  33              		.global	RX_INT
  34              		.thumb
  35              		.thumb_func
  36              		.type	RX_INT, %function
  37              	RX_INT:
  38              	.LFB29:
  39              		.file 1 ".\\main.c"
   1:.\main.c      **** #include <device.h>
   2:.\main.c      **** 
   3:.\main.c      **** // Mat constants
   4:.\main.c      **** #define HEIGHT (4)
   5:.\main.c      **** #define WIDTH (4)
   6:.\main.c      **** #define MAT_SIZE (16)
   7:.\main.c      **** 
   8:.\main.c      **** // Serial Communcation Constants
   9:.\main.c      **** #define SERIAL_START_CHAR ('A')
  10:.\main.c      **** #define FIRST_SERIAL_RECEIVE_CHAR ('B') 
  11:.\main.c      **** #define FINAL_SERIAL_RECEIVE_CHAR (10)  // Linefeed in ASCII
  12:.\main.c      **** 
  13:.\main.c      **** // ADC constnats 
  14:.\main.c      **** #define ADC_GAIN (100)
ARM GAS  C:\Users\Kojo\AppData\Local\Temp\ccToyyFd.s 			page 2


  15:.\main.c      **** 
  16:.\main.c      **** // ADC members
  17:.\main.c      **** uint16 adcResult = 0;
  18:.\main.c      **** uint8 adcValues [HEIGHT * WIDTH];
  19:.\main.c      **** 
  20:.\main.c      **** CY_ISR(RX_INT) {
  40              		.loc 1 20 0
  41              		.cfi_startproc
  42              		@ args = 0, pretend = 0, frame = 8
  43              		@ frame_needed = 1, uses_anonymous_args = 0
  44 0000 80B5     		push	{r7, lr}
  45              	.LCFI0:
  46              		.cfi_def_cfa_offset 8
  47 0002 82B0     		sub	sp, sp, #8
  48              	.LCFI1:
  49              		.cfi_def_cfa_offset 16
  50 0004 00AF     		add	r7, sp, #0
  51              		.cfi_offset 14, -4
  52              		.cfi_offset 7, -8
  53              	.LCFI2:
  54              		.cfi_def_cfa_register 7
  21:.\main.c      ****     uint8 input = UART_ReadRxData();
  55              		.loc 1 21 0
  56 0006 FFF7FEFF 		bl	UART_ReadRxData
  57 000a 0346     		mov	r3, r0
  58 000c FB71     		strb	r3, [r7, #7]
  22:.\main.c      ****     //LCD_PutChar(input);     // RX ISR
  23:.\main.c      ****     processRX(input);
  59              		.loc 1 23 0
  60 000e FB79     		ldrb	r3, [r7, #7]	@ zero_extendqisi2
  61 0010 1846     		mov	r0, r3
  62 0012 FFF7FEFF 		bl	processRX
  24:.\main.c      **** }
  63              		.loc 1 24 0
  64 0016 07F10807 		add	r7, r7, #8
  65 001a BD46     		mov	sp, r7
  66 001c 80BD     		pop	{r7, pc}
  67              		.cfi_endproc
  68              	.LFE29:
  69              		.size	RX_INT, .-RX_INT
  70 001e 00BF     		.section	.text.init,"ax",%progbits
  71              		.align	2
  72              		.global	init
  73              		.thumb
  74              		.thumb_func
  75              		.type	init, %function
  76              	init:
  77              	.LFB30:
  25:.\main.c      **** 
  26:.\main.c      **** void init() {
  78              		.loc 1 26 0
  79              		.cfi_startproc
  80              		@ args = 0, pretend = 0, frame = 0
  81              		@ frame_needed = 1, uses_anonymous_args = 0
  82 0000 80B5     		push	{r7, lr}
  83              	.LCFI3:
  84              		.cfi_def_cfa_offset 8
ARM GAS  C:\Users\Kojo\AppData\Local\Temp\ccToyyFd.s 			page 3


  85 0002 00AF     		add	r7, sp, #0
  86              		.cfi_offset 14, -4
  87              		.cfi_offset 7, -8
  88              	.LCFI4:
  89              		.cfi_def_cfa_register 7
  27:.\main.c      **** 	LCD_Start();					    // initialize lcd
  90              		.loc 1 27 0
  91 0004 FFF7FEFF 		bl	LCD_Start
  28:.\main.c      **** 	LCD_ClearDisplay();
  92              		.loc 1 28 0
  93 0008 4FF00100 		mov	r0, #1
  94 000c FFF7FEFF 		bl	LCD_WriteControl
  29:.\main.c      ****     
  30:.\main.c      ****     CyGlobalIntEnable;
  95              		.loc 1 30 0
  96              	@ 30 ".\main.c" 1
  97 0010 62B6     		CPSIE   i
  98              	@ 0 "" 2
  31:.\main.c      ****     rx_int_StartEx(RX_INT);             // start RX interrupt (look for CY_ISR with RX_INT address)
  99              		.loc 1 31 0
 100              		.thumb
 101 0012 40F20000 		movw	r0, #:lower16:RX_INT
 102 0016 C0F20000 		movt	r0, #:upper16:RX_INT
 103 001a FFF7FEFF 		bl	rx_int_StartEx
  32:.\main.c      ****                                         // for code that writes received bytes to LCD.
  33:.\main.c      ****     
  34:.\main.c      ****     UART_Start();                       // initialize UART
 104              		.loc 1 34 0
 105 001e FFF7FEFF 		bl	UART_Start
  35:.\main.c      ****     UART_ClearRxBuffer();
 106              		.loc 1 35 0
 107 0022 FFF7FEFF 		bl	UART_ClearRxBuffer
  36:.\main.c      ****     
  37:.\main.c      ****     // Init Electronic Components
  38:.\main.c      ****     PGA_1_Start();
 108              		.loc 1 38 0
 109 0026 FFF7FEFF 		bl	PGA_1_Start
  39:.\main.c      ****     VDAC8_1_Start();
 110              		.loc 1 39 0
 111 002a FFF7FEFF 		bl	VDAC8_1_Start
  40:.\main.c      ****     PGA_2_Start();
 112              		.loc 1 40 0
 113 002e FFF7FEFF 		bl	PGA_2_Start
  41:.\main.c      ****     IDAC8_1_Start();
 114              		.loc 1 41 0
 115 0032 FFF7FEFF 		bl	IDAC8_1_Start
  42:.\main.c      ****     ADC_SAR_1_Start();
 116              		.loc 1 42 0
 117 0036 FFF7FEFF 		bl	ADC_SAR_1_Start
  43:.\main.c      ****     ADC_SAR_1_StartConvert();
 118              		.loc 1 43 0
 119 003a FFF7FEFF 		bl	ADC_SAR_1_StartConvert
  44:.\main.c      **** }
 120              		.loc 1 44 0
 121 003e 80BD     		pop	{r7, pc}
 122              		.cfi_endproc
 123              	.LFE30:
ARM GAS  C:\Users\Kojo\AppData\Local\Temp\ccToyyFd.s 			page 4


 124              		.size	init, .-init
 125              		.section	.text.crlf,"ax",%progbits
 126              		.align	2
 127              		.global	crlf
 128              		.thumb
 129              		.thumb_func
 130              		.type	crlf, %function
 131              	crlf:
 132              	.LFB31:
  45:.\main.c      **** 
  46:.\main.c      **** 
  47:.\main.c      **** void crlf(){   
 133              		.loc 1 47 0
 134              		.cfi_startproc
 135              		@ args = 0, pretend = 0, frame = 0
 136              		@ frame_needed = 1, uses_anonymous_args = 0
 137 0000 80B5     		push	{r7, lr}
 138              	.LCFI5:
 139              		.cfi_def_cfa_offset 8
 140 0002 00AF     		add	r7, sp, #0
 141              		.cfi_offset 14, -4
 142              		.cfi_offset 7, -8
 143              	.LCFI6:
 144              		.cfi_def_cfa_register 7
  48:.\main.c      ****     UART_PutChar(10);
 145              		.loc 1 48 0
 146 0004 4FF00A00 		mov	r0, #10
 147 0008 FFF7FEFF 		bl	UART_PutChar
  49:.\main.c      ****     UART_PutChar(13);
 148              		.loc 1 49 0
 149 000c 4FF00D00 		mov	r0, #13
 150 0010 FFF7FEFF 		bl	UART_PutChar
  50:.\main.c      **** }
 151              		.loc 1 50 0
 152 0014 80BD     		pop	{r7, pc}
 153              		.cfi_endproc
 154              	.LFE31:
 155              		.size	crlf, .-crlf
 156 0016 00BF     		.section	.text.main,"ax",%progbits
 157              		.align	2
 158              		.global	main
 159              		.thumb
 160              		.thumb_func
 161              		.type	main, %function
 162              	main:
 163              	.LFB32:
  51:.\main.c      **** 
  52:.\main.c      **** 
  53:.\main.c      **** void main() {	
 164              		.loc 1 53 0
 165              		.cfi_startproc
 166              		@ args = 0, pretend = 0, frame = 0
 167              		@ frame_needed = 1, uses_anonymous_args = 0
 168 0000 80B5     		push	{r7, lr}
 169              	.LCFI7:
 170              		.cfi_def_cfa_offset 8
 171 0002 00AF     		add	r7, sp, #0
ARM GAS  C:\Users\Kojo\AppData\Local\Temp\ccToyyFd.s 			page 5


 172              		.cfi_offset 14, -4
 173              		.cfi_offset 7, -8
 174              	.LCFI8:
 175              		.cfi_def_cfa_register 7
  54:.\main.c      ****     init();
 176              		.loc 1 54 0
 177 0004 FFF7FEFF 		bl	init
 178              	.L8:
  55:.\main.c      ****     // Main process loop.
  56:.\main.c      ****     while(1) {
  57:.\main.c      ****         // Read ADC inputs
  58:.\main.c      ****         processMat();
 179              		.loc 1 58 0
 180 0008 FFF7FEFF 		bl	processMat
  59:.\main.c      ****     }
 181              		.loc 1 59 0
 182 000c FCE7     		b	.L8
 183              		.cfi_endproc
 184              	.LFE32:
 185              		.size	main, .-main
 186 000e 00BF     		.section	.text.processRX,"ax",%progbits
 187              		.align	2
 188              		.global	processRX
 189              		.thumb
 190              		.thumb_func
 191              		.type	processRX, %function
 192              	processRX:
 193              	.LFB33:
  60:.\main.c      **** }
  61:.\main.c      **** 
  62:.\main.c      **** 
  63:.\main.c      **** void processRX(uint8 input) {
 194              		.loc 1 63 0
 195              		.cfi_startproc
 196              		@ args = 0, pretend = 0, frame = 16
 197              		@ frame_needed = 1, uses_anonymous_args = 0
 198 0000 80B5     		push	{r7, lr}
 199              	.LCFI9:
 200              		.cfi_def_cfa_offset 8
 201 0002 84B0     		sub	sp, sp, #16
 202              	.LCFI10:
 203              		.cfi_def_cfa_offset 24
 204 0004 00AF     		add	r7, sp, #0
 205              		.cfi_offset 14, -4
 206              		.cfi_offset 7, -8
 207              	.LCFI11:
 208              		.cfi_def_cfa_register 7
 209 0006 0346     		mov	r3, r0
 210 0008 FB71     		strb	r3, [r7, #7]
  64:.\main.c      ****     // Only start sending values if receive start char
  65:.\main.c      ****     if (input != SERIAL_START_CHAR) {
 211              		.loc 1 65 0
 212 000a FB79     		ldrb	r3, [r7, #7]	@ zero_extendqisi2
 213 000c 412B     		cmp	r3, #65
 214 000e 1CD1     		bne	.L16
 215              	.L11:
  66:.\main.c      ****         return;
ARM GAS  C:\Users\Kojo\AppData\Local\Temp\ccToyyFd.s 			page 6


  67:.\main.c      ****     }
  68:.\main.c      ****     
  69:.\main.c      ****     // Send start char of sequence
  70:.\main.c      ****     UART_PutChar(FIRST_SERIAL_RECEIVE_CHAR);
 216              		.loc 1 70 0
 217 0010 4FF04200 		mov	r0, #66
 218 0014 FFF7FEFF 		bl	UART_PutChar
  71:.\main.c      **** 
  72:.\main.c      ****     // Send payload data
  73:.\main.c      ****     int i;
  74:.\main.c      ****     for (i = 0; i < MAT_SIZE; ++i) {
 219              		.loc 1 74 0
 220 0018 4FF00003 		mov	r3, #0
 221 001c FB60     		str	r3, [r7, #12]
 222 001e 0CE0     		b	.L13
 223              	.L14:
  75:.\main.c      ****         UART_PutChar(adcValues[i]);
 224              		.loc 1 75 0
 225 0020 FA68     		ldr	r2, [r7, #12]
 226 0022 40F20003 		movw	r3, #:lower16:adcValues
 227 0026 C0F20003 		movt	r3, #:upper16:adcValues
 228 002a 9B5C     		ldrb	r3, [r3, r2]	@ zero_extendqisi2
 229 002c 1846     		mov	r0, r3
 230 002e FFF7FEFF 		bl	UART_PutChar
 231              		.loc 1 74 0
 232 0032 FB68     		ldr	r3, [r7, #12]
 233 0034 03F10103 		add	r3, r3, #1
 234 0038 FB60     		str	r3, [r7, #12]
 235              	.L13:
 236 003a FB68     		ldr	r3, [r7, #12]
 237 003c 0F2B     		cmp	r3, #15
 238 003e EFDD     		ble	.L14
  76:.\main.c      ****         //UART_PutChar(0xF0 * i);
  77:.\main.c      ****     }
  78:.\main.c      **** 
  79:.\main.c      ****     // Send final char of sequence
  80:.\main.c      ****     UART_PutChar(FINAL_SERIAL_RECEIVE_CHAR);
 239              		.loc 1 80 0
 240 0040 4FF00A00 		mov	r0, #10
 241 0044 FFF7FEFF 		bl	UART_PutChar
 242 0048 00E0     		b	.L15
 243              	.L16:
 244              		.loc 1 66 0
 245 004a 00BF     		nop
 246              	.L15:
  81:.\main.c      **** }
 247              		.loc 1 81 0
 248 004c 07F11007 		add	r7, r7, #16
 249 0050 BD46     		mov	sp, r7
 250 0052 80BD     		pop	{r7, pc}
 251              		.cfi_endproc
 252              	.LFE33:
 253              		.size	processRX, .-processRX
 254              		.section	.text.processMat,"ax",%progbits
 255              		.align	2
 256              		.global	processMat
 257              		.thumb
ARM GAS  C:\Users\Kojo\AppData\Local\Temp\ccToyyFd.s 			page 7


 258              		.thumb_func
 259              		.type	processMat, %function
 260              	processMat:
 261              	.LFB34:
  82:.\main.c      **** 
  83:.\main.c      **** void processMat() {
 262              		.loc 1 83 0
 263              		.cfi_startproc
 264              		@ args = 0, pretend = 0, frame = 8
 265              		@ frame_needed = 1, uses_anonymous_args = 0
 266 0000 80B5     		push	{r7, lr}
 267              	.LCFI12:
 268              		.cfi_def_cfa_offset 8
 269 0002 82B0     		sub	sp, sp, #8
 270              	.LCFI13:
 271              		.cfi_def_cfa_offset 16
 272 0004 00AF     		add	r7, sp, #0
 273              		.cfi_offset 14, -4
 274              		.cfi_offset 7, -8
 275              	.LCFI14:
 276              		.cfi_def_cfa_register 7
  84:.\main.c      ****     ADC_SAR_1_IsEndConversion(1);
 277              		.loc 1 84 0
 278 0006 4FF00100 		mov	r0, #1
 279 000a FFF7FEFF 		bl	ADC_SAR_1_IsEndConversion
  85:.\main.c      ****     adcResult = ADC_SAR_1_GetResult16();
 280              		.loc 1 85 0
 281 000e FFF7FEFF 		bl	ADC_SAR_1_GetResult16
 282 0012 0346     		mov	r3, r0
 283 0014 9BB2     		uxth	r3, r3
 284 0016 9AB2     		uxth	r2, r3
 285 0018 40F20003 		movw	r3, #:lower16:adcResult
 286 001c C0F20003 		movt	r3, #:upper16:adcResult
 287 0020 1A80     		strh	r2, [r3, #0]	@ movhi
  86:.\main.c      ****     LCD_ClearDisplay();
 288              		.loc 1 86 0
 289 0022 4FF00100 		mov	r0, #1
 290 0026 FFF7FEFF 		bl	LCD_WriteControl
  87:.\main.c      ****     LCD_PutChar(adcResult);     // RX ISR
 291              		.loc 1 87 0
 292 002a 40F20003 		movw	r3, #:lower16:adcResult
 293 002e C0F20003 		movt	r3, #:upper16:adcResult
 294 0032 1B88     		ldrh	r3, [r3, #0]
 295 0034 DBB2     		uxtb	r3, r3
 296 0036 1846     		mov	r0, r3
 297 0038 FFF7FEFF 		bl	LCD_PutChar
  88:.\main.c      ****     int i;
  89:.\main.c      ****     for (i = 0; i < MAT_SIZE; ++i) {
 298              		.loc 1 89 0
 299 003c 4FF00003 		mov	r3, #0
 300 0040 7B60     		str	r3, [r7, #4]
 301 0042 0FE0     		b	.L18
 302              	.L19:
  90:.\main.c      ****         adcValues[i] = adcResult;
 303              		.loc 1 90 0
 304 0044 7A68     		ldr	r2, [r7, #4]
 305 0046 40F20003 		movw	r3, #:lower16:adcResult
ARM GAS  C:\Users\Kojo\AppData\Local\Temp\ccToyyFd.s 			page 8


 306 004a C0F20003 		movt	r3, #:upper16:adcResult
 307 004e 1B88     		ldrh	r3, [r3, #0]
 308 0050 D9B2     		uxtb	r1, r3
 309 0052 40F20003 		movw	r3, #:lower16:adcValues
 310 0056 C0F20003 		movt	r3, #:upper16:adcValues
 311 005a 9954     		strb	r1, [r3, r2]
 312              		.loc 1 89 0
 313 005c 7B68     		ldr	r3, [r7, #4]
 314 005e 03F10103 		add	r3, r3, #1
 315 0062 7B60     		str	r3, [r7, #4]
 316              	.L18:
 317 0064 7B68     		ldr	r3, [r7, #4]
 318 0066 0F2B     		cmp	r3, #15
 319 0068 ECDD     		ble	.L19
  91:.\main.c      ****     }
  92:.\main.c      **** }
 320              		.loc 1 92 0
 321 006a 07F10807 		add	r7, r7, #8
 322 006e BD46     		mov	sp, r7
 323 0070 80BD     		pop	{r7, pc}
 324              		.cfi_endproc
 325              	.LFE34:
 326              		.size	processMat, .-processMat
 327 0072 00BF     		.text
 328              	.Letext0: